target datalayout = "e-m:e-p270:32:32-p271:32:32-p272:64:64-i64:64-i128:128-f80:128-n8:16:32:64-S128"
target triple = "x86_64-pc-linux-gnu"

%struct.SpecifierOptList = type { ptr, i32, ptr, i32 }
%struct.OptionsContext = type { ptr, i64, i64, i32, ptr, %struct.SpecifierOptList, %struct.SpecifierOptList, %struct.SpecifierOptList, %struct.SpecifierOptList, %struct.SpecifierOptList, %struct.SpecifierOptList, %struct.SpecifierOptList, %struct.SpecifierOptList, i64, i32, i32, float, float, double, i32, i32, i32, i32, %struct.SpecifierOptList, %struct.SpecifierOptList, %struct.SpecifierOptList, %struct.SpecifierOptList, %struct.SpecifierOptList, %struct.SpecifierOptList, %struct.SpecifierOptList, ptr, i32, ptr, i32, i32, i64, i64, i64, float, float, float, i32, i32, i32, i32, i32, i32, ptr, %struct.SpecifierOptList, %struct.SpecifierOptList, %struct.SpecifierOptList, %struct.SpecifierOptList, %struct.SpecifierOptList, %struct.SpecifierOptList, %struct.SpecifierOptList, %struct.SpecifierOptList, %struct.SpecifierOptList, %struct.SpecifierOptList, %struct.SpecifierOptList, %struct.SpecifierOptList, %struct.SpecifierOptList, %struct.SpecifierOptList, %struct.SpecifierOptList, %struct.SpecifierOptList, %struct.SpecifierOptList, %struct.SpecifierOptList, %struct.SpecifierOptList, %struct.SpecifierOptList, %struct.SpecifierOptList, %struct.SpecifierOptList, %struct.SpecifierOptList, %struct.SpecifierOptList, %struct.SpecifierOptList, %struct.SpecifierOptList, %struct.SpecifierOptList, %struct.SpecifierOptList, %struct.SpecifierOptList, %struct.SpecifierOptList, %struct.SpecifierOptList, %struct.SpecifierOptList, %struct.SpecifierOptList, %struct.SpecifierOptList, %struct.SpecifierOptList, %struct.SpecifierOptList, %struct.SpecifierOptList, %struct.SpecifierOptList, %struct.SpecifierOptList, %struct.SpecifierOptList, %struct.SpecifierOptList, %struct.SpecifierOptList, %struct.SpecifierOptList, %struct.SpecifierOptList, %struct.SpecifierOptList, %struct.SpecifierOptList, %struct.SpecifierOptList, %struct.SpecifierOptList, %struct.SpecifierOptList }

; Function Attrs: nounwind uwtable
define internal i32 @opt_attach(ptr noundef %0, ptr noundef %1, ptr noundef %2) #0 {
  %4 = alloca i32, align 4
  %5 = alloca ptr, align 8
  %6 = alloca ptr, align 8
  %7 = alloca ptr, align 8
  %8 = alloca ptr, align 8
  %9 = alloca i32, align 4
  %10 = alloca i32, align 4
  store ptr %0, ptr %5, align 8, !tbaa !26
  store ptr %1, ptr %6, align 8, !tbaa !23
  store ptr %2, ptr %7, align 8, !tbaa !23
  call void @llvm.lifetime.start.p0(i64 8, ptr %8) #12
  %11 = load ptr, ptr %5, align 8, !tbaa !26
  store ptr %11, ptr %8, align 8, !tbaa !151
  call void @llvm.lifetime.start.p0(i64 4, ptr %9) #12
  %12 = load ptr, ptr %8, align 8, !tbaa !151
  %13 = getelementptr inbounds nuw %struct.OptionsContext, ptr %12, i32 0, i32 32
  %14 = load ptr, ptr %8, align 8, !tbaa !151
  %15 = getelementptr inbounds nuw %struct.OptionsContext, ptr %14, i32 0, i32 33
  %16 = load ptr, ptr %8, align 8, !tbaa !151
  %17 = getelementptr inbounds nuw %struct.OptionsContext, ptr %16, i32 0, i32 33
  %18 = load i32, ptr %17, align 8, !tbaa !188
  %19 = add nsw i32 %18, 1
  %20 = call i32 @grow_array(ptr noundef %13, i32 noundef 8, ptr noundef %15, i32 noundef %19)
  store i32 %20, ptr %9, align 4, !tbaa !16
  %21 = load i32, ptr %9, align 4, !tbaa !16
  %22 = icmp slt i32 %21, 0
  br i1 %22, label %23, label %25

23:                                               ; preds = %3
  %24 = load i32, ptr %9, align 4, !tbaa !16
  store i32 %24, ptr %4, align 4
  store i32 1, ptr %10, align 4
  br label %50

25:                                               ; preds = %3
  %26 = load ptr, ptr %7, align 8, !tbaa !23
  %27 = call noalias ptr @av_strdup(ptr noundef %26)
  %28 = load ptr, ptr %8, align 8, !tbaa !151
  %29 = getelementptr inbounds nuw %struct.OptionsContext, ptr %28, i32 0, i32 32
  %30 = load ptr, ptr %29, align 8, !tbaa !189
  %31 = load ptr, ptr %8, align 8, !tbaa !151
  %32 = getelementptr inbounds nuw %struct.OptionsContext, ptr %31, i32 0, i32 33
  %33 = load i32, ptr %32, align 8, !tbaa !188
  %34 = sub nsw i32 %33, 1
  %35 = sext i32 %34 to i64
  %36 = getelementptr inbounds ptr, ptr %30, i64 %35
  store ptr %27, ptr %36, align 8, !tbaa !23
  %37 = load ptr, ptr %8, align 8, !tbaa !151
  %38 = getelementptr inbounds nuw %struct.OptionsContext, ptr %37, i32 0, i32 32
  %39 = load ptr, ptr %38, align 8, !tbaa !189
  %40 = load ptr, ptr %8, align 8, !tbaa !151
  %41 = getelementptr inbounds nuw %struct.OptionsContext, ptr %40, i32 0, i32 33
  %42 = load i32, ptr %41, align 8, !tbaa !188
  %43 = sub nsw i32 %42, 1
  %44 = sext i32 %43 to i64
  %45 = getelementptr inbounds ptr, ptr %39, i64 %44
  %46 = load ptr, ptr %45, align 8, !tbaa !23
  %47 = icmp ne ptr %46, null
  br i1 %47, label %49, label %48

48:                                               ; preds = %25
  store i32 -12, ptr %4, align 4
  store i32 1, ptr %10, align 4
  br label %50

49:                                               ; preds = %25
  store i32 0, ptr %4, align 4
  store i32 1, ptr %10, align 4
  br label %50

50:                                               ; preds = %49, %48, %23
  call void @llvm.lifetime.end.p0(i64 4, ptr %9) #12
  call void @llvm.lifetime.end.p0(i64 8, ptr %8) #12
  %51 = load i32, ptr %4, align 4
  ret i32 %51
}