; Function Attrs: nounwind uwtable
define internal range(i32 -2147483648, 1) i32 @opt_attach(ptr noundef %0, ptr readnone captures(none) %1, ptr noundef %2) #0 {
  %4 = getelementptr inbounds nuw i8, ptr %0, i64 584
  %5 = getelementptr inbounds nuw i8, ptr %0, i64 592
  %6 = load i32, ptr %5, align 8, !tbaa !166
  %7 = add nsw i32 %6, 1
  %8 = tail call i32 @grow_array(ptr noundef nonnull %4, i32 noundef 8, ptr noundef nonnull %5, i32 noundef %7) #15
  %9 = icmp slt i32 %8, 0
  br i1 %9, label %17, label %10

10:                                               ; preds = %3
  %11 = tail call noalias ptr @av_strdup(ptr noundef %2) #15
  %12 = load ptr, ptr %4, align 8, !tbaa !167
  %13 = load i32, ptr %5, align 8, !tbaa !166
  %14 = sext i32 %13 to i64
  %15 = getelementptr ptr, ptr %12, i64 %14
  %16 = getelementptr i8, ptr %15, i64 -8
  store ptr %11, ptr %16, align 8, !tbaa !22
  %.not = icmp eq ptr %11, null
  %. = select i1 %.not, i32 -12, i32 0
  br label %17

17:                                               ; preds = %10, %3
  %.0 = phi i32 [ %8, %3 ], [ %., %10 ]
  ret i32 %.0
}